; ModuleID = '2/85.c'
source_filename = "2/85.c"
target datalayout = "e-m:e-p270:32:32-p271:32:32-p272:64:64-i64:64-f80:128-n8:16:32:64-S128"
target triple = "x86_64-pc-linux-gnu"

@__const.main.z = private unnamed_addr constant [26 x i8] c"ABCDEFGHIJKLMNOPQRSTUVWXYZ", align 16
@.str = private unnamed_addr constant [3 x i8] c"%d\00", align 1
@.str.1 = private unnamed_addr constant [3 x i8] c"%s\00", align 1
@.str.2 = private unnamed_addr constant [7 x i8] c"%c\0A%d\0A\00", align 1
@.str.3 = private unnamed_addr constant [4 x i8] c"%s\0A\00", align 1

; Function Attrs: noinline nounwind uwtable
define dso_local i32 @main() #0 {
  %1 = alloca i32, align 4
  %2 = alloca [26 x i32], align 16
  %3 = alloca [26 x i8], align 16
  %4 = alloca [26 x [100 x [20 x i8]]], align 16
  %5 = alloca i32, align 4
  %6 = alloca i32, align 4
  %7 = alloca i32, align 4
  %8 = alloca i32, align 4
  %9 = alloca [100 x [100 x i8]], align 16
  %10 = alloca [20 x i8], align 16
  %11 = alloca i32, align 4
  %12 = alloca i32, align 4
  store i32 0, i32* %1, align 4
  %13 = bitcast [26 x i32]* %2 to i8*
  call void @llvm.memset.p0i8.i64(i8* align 16 %13, i8 0, i64 104, i1 false)
  %14 = bitcast [26 x i8]* %3 to i8*
  call void @llvm.memcpy.p0i8.p0i8.i64(i8* align 16 %14, i8* align 16 getelementptr inbounds ([26 x i8], [26 x i8]* @__const.main.z, i32 0, i32 0), i64 26, i1 false)
  %15 = call i32 (i8*, ...) @__isoc99_scanf(i8* getelementptr inbounds ([3 x i8], [3 x i8]* @.str, i64 0, i64 0), i32* %5)
  store i32 0, i32* %7, align 4
  br label %16

16:                                               ; preds = %81, %0
  %17 = load i32, i32* %7, align 4
  %18 = load i32, i32* %5, align 4
  %19 = icmp slt i32 %17, %18
  br i1 %19, label %20, label %84

20:                                               ; preds = %16
  %21 = load i32, i32* %7, align 4
  %22 = sext i32 %21 to i64
  %23 = getelementptr inbounds [100 x [100 x i8]], [100 x [100 x i8]]* %9, i64 0, i64 %22
  %24 = getelementptr inbounds [100 x i8], [100 x i8]* %23, i64 0, i64 0
  %25 = call i32 (i8*, ...) @__isoc99_scanf(i8* getelementptr inbounds ([3 x i8], [3 x i8]* @.str.1, i64 0, i64 0), i8* %24)
  %26 = getelementptr inbounds [20 x i8], [20 x i8]* %10, i64 0, i64 0
  %27 = call i32 (i8*, ...) @__isoc99_scanf(i8* getelementptr inbounds ([3 x i8], [3 x i8]* @.str.1, i64 0, i64 0), i8* %26)
  %28 = getelementptr inbounds [20 x i8], [20 x i8]* %10, i64 0, i64 0
  %29 = call i64 @strlen(i8* %28) #5
  %30 = trunc i64 %29 to i32
  store i32 %30, i32* %11, align 4
  store i32 0, i32* %6, align 4
  br label %31

31:                                               ; preds = %77, %20
  %32 = load i32, i32* %6, align 4
  %33 = load i32, i32* %11, align 4
  %34 = icmp slt i32 %32, %33
  br i1 %34, label %35, label %80

35:                                               ; preds = %31
  store i32 0, i32* %8, align 4
  br label %36

36:                                               ; preds = %73, %35
  %37 = load i32, i32* %8, align 4
  %38 = icmp slt i32 %37, 26
  br i1 %38, label %39, label %76

39:                                               ; preds = %36
  %40 = load i32, i32* %6, align 4
  %41 = sext i32 %40 to i64
  %42 = getelementptr inbounds [20 x i8], [20 x i8]* %10, i64 0, i64 %41
  %43 = load i8, i8* %42, align 1
  %44 = sext i8 %43 to i32
  %45 = load i32, i32* %8, align 4
  %46 = sext i32 %45 to i64
  %47 = getelementptr inbounds [26 x i8], [26 x i8]* %3, i64 0, i64 %46
  %48 = load i8, i8* %47, align 1
  %49 = sext i8 %48 to i32
  %50 = icmp eq i32 %44, %49
  br i1 %50, label %51, label %72

51:                                               ; preds = %39
  %52 = load i32, i32* %8, align 4
  %53 = sext i32 %52 to i64
  %54 = getelementptr inbounds [26 x i32], [26 x i32]* %2, i64 0, i64 %53
  %55 = load i32, i32* %54, align 4
  %56 = add nsw i32 %55, 1
  store i32 %56, i32* %54, align 4
  %57 = load i32, i32* %8, align 4
  %58 = sext i32 %57 to i64
  %59 = getelementptr inbounds [26 x [100 x [20 x i8]]], [26 x [100 x [20 x i8]]]* %4, i64 0, i64 %58
  %60 = load i32, i32* %8, align 4
  %61 = sext i32 %60 to i64
  %62 = getelementptr inbounds [26 x i32], [26 x i32]* %2, i64 0, i64 %61
  %63 = load i32, i32* %62, align 4
  %64 = sext i32 %63 to i64
  %65 = getelementptr inbounds [100 x [20 x i8]], [100 x [20 x i8]]* %59, i64 0, i64 %64
  %66 = getelementptr inbounds [20 x i8], [20 x i8]* %65, i64 0, i64 0
  %67 = load i32, i32* %7, align 4
  %68 = sext i32 %67 to i64
  %69 = getelementptr inbounds [100 x [100 x i8]], [100 x [100 x i8]]* %9, i64 0, i64 %68
  %70 = getelementptr inbounds [100 x i8], [100 x i8]* %69, i64 0, i64 0
  %71 = call i8* @strcpy(i8* %66, i8* %70) #6
  br label %72

72:                                               ; preds = %51, %39
  br label %73

73:                                               ; preds = %72
  %74 = load i32, i32* %8, align 4
  %75 = add nsw i32 %74, 1
  store i32 %75, i32* %8, align 4
  br label %36

76:                                               ; preds = %36
  br label %77

77:                                               ; preds = %76
  %78 = load i32, i32* %6, align 4
  %79 = add nsw i32 %78, 1
  store i32 %79, i32* %6, align 4
  br label %31

80:                                               ; preds = %31
  br label %81

81:                                               ; preds = %80
  %82 = load i32, i32* %7, align 4
  %83 = add nsw i32 %82, 1
  store i32 %83, i32* %7, align 4
  br label %16

84:                                               ; preds = %16
  store i32 0, i32* %12, align 4
  store i32 1, i32* %8, align 4
  br label %85

85:                                               ; preds = %101, %84
  %86 = load i32, i32* %8, align 4
  %87 = icmp slt i32 %86, 26
  br i1 %87, label %88, label %104

88:                                               ; preds = %85
  %89 = load i32, i32* %8, align 4
  %90 = sext i32 %89 to i64
  %91 = getelementptr inbounds [26 x i32], [26 x i32]* %2, i64 0, i64 %90
  %92 = load i32, i32* %91, align 4
  %93 = load i32, i32* %12, align 4
  %94 = sext i32 %93 to i64
  %95 = getelementptr inbounds [26 x i32], [26 x i32]* %2, i64 0, i64 %94
  %96 = load i32, i32* %95, align 4
  %97 = icmp sgt i32 %92, %96
  br i1 %97, label %98, label %100

98:                                               ; preds = %88
  %99 = load i32, i32* %8, align 4
  store i32 %99, i32* %12, align 4
  br label %100

100:                                              ; preds = %98, %88
  br label %101

101:                                              ; preds = %100
  %102 = load i32, i32* %8, align 4
  %103 = add nsw i32 %102, 1
  store i32 %103, i32* %8, align 4
  br label %85

104:                                              ; preds = %85
  %105 = load i32, i32* %12, align 4
  %106 = sext i32 %105 to i64
  %107 = getelementptr inbounds [26 x i8], [26 x i8]* %3, i64 0, i64 %106
  %108 = load i8, i8* %107, align 1
  %109 = sext i8 %108 to i32
  %110 = load i32, i32* %12, align 4
  %111 = sext i32 %110 to i64
  %112 = getelementptr inbounds [26 x i32], [26 x i32]* %2, i64 0, i64 %111
  %113 = load i32, i32* %112, align 4
  %114 = call i32 (i8*, ...) @printf(i8* getelementptr inbounds ([7 x i8], [7 x i8]* @.str.2, i64 0, i64 0), i32 %109, i32 %113)
  store i32 1, i32* %6, align 4
  br label %115

115:                                              ; preds = %131, %104
  %116 = load i32, i32* %6, align 4
  %117 = load i32, i32* %12, align 4
  %118 = sext i32 %117 to i64
  %119 = getelementptr inbounds [26 x i32], [26 x i32]* %2, i64 0, i64 %118
  %120 = load i32, i32* %119, align 4
  %121 = icmp sle i32 %116, %120
  br i1 %121, label %122, label %134

122:                                              ; preds = %115
  %123 = load i32, i32* %12, align 4
  %124 = sext i32 %123 to i64
  %125 = getelementptr inbounds [26 x [100 x [20 x i8]]], [26 x [100 x [20 x i8]]]* %4, i64 0, i64 %124
  %126 = load i32, i32* %6, align 4
  %127 = sext i32 %126 to i64
  %128 = getelementptr inbounds [100 x [20 x i8]], [100 x [20 x i8]]* %125, i64 0, i64 %127
  %129 = getelementptr inbounds [20 x i8], [20 x i8]* %128, i64 0, i64 0
  %130 = call i32 (i8*, ...) @printf(i8* getelementptr inbounds ([4 x i8], [4 x i8]* @.str.3, i64 0, i64 0), i8* %129)
  br label %131

131:                                              ; preds = %122
  %132 = load i32, i32* %6, align 4
  %133 = add nsw i32 %132, 1
  store i32 %133, i32* %6, align 4
  br label %115

134:                                              ; preds = %115
  %135 = load i32, i32* %1, align 4
  ret i32 %135
}

; Function Attrs: argmemonly nounwind willreturn
declare void @llvm.memset.p0i8.i64(i8* nocapture writeonly, i8, i64, i1 immarg) #1

; Function Attrs: argmemonly nounwind willreturn
declare void @llvm.memcpy.p0i8.p0i8.i64(i8* noalias nocapture writeonly, i8* noalias nocapture readonly, i64, i1 immarg) #1

declare dso_local i32 @__isoc99_scanf(i8*, ...) #2

; Function Attrs: nounwind readonly
declare dso_local i64 @strlen(i8*) #3

; Function Attrs: nounwind
declare dso_local i8* @strcpy(i8*, i8*) #4

declare dso_local i32 @printf(i8*, ...) #2


!llvm.module.flags = !{!0}
!llvm.ident = !{!1}

!0 = !{i32 1, !"wchar_size", i32 4}
!1 = !{!"clang version 10.0.0-4ubuntu1 "}
